; Function Attrs: nounwind uwtable
define hidden zeroext i8 @checkForAndClearThrowable(ptr noundef %0) local_unnamed_addr #1 {
  %2 = load ptr, ptr %0, align 8
  %3 = getelementptr inbounds i8, ptr %2, i64 1824
  %4 = load ptr, ptr %3, align 8
  %5 = tail call zeroext i8 %4(ptr noundef nonnull %0) #3
  %.not = icmp eq i8 %5, 0
  br i1 %.not, label %10, label %6

6:                                                ; preds = %1
  %7 = load ptr, ptr %0, align 8
  %8 = getelementptr inbounds i8, ptr %7, i64 136
  %9 = load ptr, ptr %8, align 8
  tail call void %9(ptr noundef nonnull %0) #3
  br label %10

10:                                               ; preds = %6, %1
  ret i8 %5
}